V@media -sass-debug-info{filename{font-family:file\u005c:\u005c/\u005c/\u005c/Users\u005c/natanjunior\u005c/Documents\u005c/fynProject\u005c/app\u005c/static\u005c/assets\u005c/estilo\u005c.scss}line{font-family:\u005c000031}}\u000a#menu_principal {\u000a  height: 50px; }\u000a
p1
.